target datalayout = "e-m:e-p270:32:32-p271:32:32-p272:64:64-i64:64-i128:128-f80:128-n8:16:32:64-S128"
target triple = "x86_64-pc-linux-gnu"

%struct.uv_loop_s = type { ptr, i32, %struct.uv__queue, %union.anon, ptr, i32, i64, i32, %struct.uv__queue, %struct.uv__queue, ptr, i32, i32, %struct.uv__queue, %union.pthread_mutex_t, %struct.uv_async_s, %union.pthread_rwlock_t, ptr, %struct.uv__queue, %struct.uv__queue, %struct.uv__queue, %struct.uv__queue, %struct.uv__queue, ptr, %struct.uv__io_s, i32, %struct.anon, i64, i64, [2 x i32], %struct.uv__io_s, %struct.uv_signal_s, i32, %struct.uv__io_s, ptr, i32 }
%union.anon = type { ptr }
%union.pthread_mutex_t = type { %struct.__pthread_mutex_s }
%struct.__pthread_mutex_s = type { i32, i32, i32, i32, i32, i16, i16, %struct.__pthread_internal_list }
%struct.__pthread_internal_list = type { ptr, ptr }
%struct.uv_async_s = type { ptr, ptr, i32, ptr, %struct.uv__queue, %union.anon.0, ptr, i32, ptr, %struct.uv__queue, i32 }
%union.anon.0 = type { [4 x ptr] }
%union.pthread_rwlock_t = type { %struct.__pthread_rwlock_arch_t }
%struct.__pthread_rwlock_arch_t = type { i32, i32, i32, i32, i32, i32, i32, i32, i8, [7 x i8], i64, i32 }
%struct.uv__queue = type { ptr, ptr }
%struct.anon = type { ptr, i32 }
%struct.uv_signal_s = type { ptr, ptr, i32, ptr, %struct.uv__queue, %union.anon.1, ptr, i32, ptr, i32, %struct.anon.2, i32, i32 }
%union.anon.1 = type { [4 x ptr] }
%struct.anon.2 = type { ptr, ptr, ptr, i32 }
%struct.uv__io_s = type { ptr, %struct.uv__queue, %struct.uv__queue, i32, i32, i32 }
%struct.uv_handle_s = type { ptr, ptr, i32, ptr, %struct.uv__queue, %union.anon.3, ptr, i32 }
%union.anon.3 = type { [4 x ptr] }

; Function Attrs: nounwind uwtable
define hidden void @uv__signal_loop_cleanup(ptr noundef %0) #0 {
  %2 = alloca ptr, align 8
  %3 = alloca ptr, align 8
  %4 = alloca ptr, align 8
  store ptr %0, ptr %2, align 8
  call void @llvm.lifetime.start.p0(i64 8, ptr %3) #9
  %5 = load ptr, ptr %2, align 8
  %6 = getelementptr inbounds nuw %struct.uv_loop_s, ptr %5, i32 0, i32 2
  %7 = getelementptr inbounds nuw %struct.uv__queue, ptr %6, i32 0, i32 0
  %8 = load ptr, ptr %7, align 8
  store ptr %8, ptr %3, align 8
  br label %9

9:                                                ; preds = %24, %1
  %10 = load ptr, ptr %3, align 8
  %11 = load ptr, ptr %2, align 8
  %12 = getelementptr inbounds nuw %struct.uv_loop_s, ptr %11, i32 0, i32 2
  %13 = icmp ne ptr %10, %12
  br i1 %13, label %14, label %28

14:                                               ; preds = %9
  call void @llvm.lifetime.start.p0(i64 8, ptr %4) #9
  %15 = load ptr, ptr %3, align 8
  %16 = getelementptr inbounds i8, ptr %15, i64 -32
  store ptr %16, ptr %4, align 8
  %17 = load ptr, ptr %4, align 8
  %18 = getelementptr inbounds nuw %struct.uv_handle_s, ptr %17, i32 0, i32 2
  %19 = load i32, ptr %18, align 8
  %20 = icmp eq i32 %19, 16
  br i1 %20, label %21, label %23

21:                                               ; preds = %14
  %22 = load ptr, ptr %4, align 8
  call void @uv__signal_stop(ptr noundef %22)
  br label %23

23:                                               ; preds = %21, %14
  call void @llvm.lifetime.end.p0(i64 8, ptr %4) #9
  br label %24

24:                                               ; preds = %23
  %25 = load ptr, ptr %3, align 8
  %26 = getelementptr inbounds nuw %struct.uv__queue, ptr %25, i32 0, i32 0
  %27 = load ptr, ptr %26, align 8
  store ptr %27, ptr %3, align 8
  br label %9

28:                                               ; preds = %9
  %29 = load ptr, ptr %2, align 8
  %30 = getelementptr inbounds nuw %struct.uv_loop_s, ptr %29, i32 0, i32 29
  %31 = getelementptr inbounds [2 x i32], ptr %30, i64 0, i64 0
  %32 = load i32, ptr %31, align 8
  %33 = icmp ne i32 %32, -1
  br i1 %33, label %34, label %43

34:                                               ; preds = %28
  %35 = load ptr, ptr %2, align 8
  %36 = getelementptr inbounds nuw %struct.uv_loop_s, ptr %35, i32 0, i32 29
  %37 = getelementptr inbounds [2 x i32], ptr %36, i64 0, i64 0
  %38 = load i32, ptr %37, align 8
  %39 = call i32 @uv__close(i32 noundef %38)
  %40 = load ptr, ptr %2, align 8
  %41 = getelementptr inbounds nuw %struct.uv_loop_s, ptr %40, i32 0, i32 29
  %42 = getelementptr inbounds [2 x i32], ptr %41, i64 0, i64 0
  store i32 -1, ptr %42, align 8
  br label %43

43:                                               ; preds = %34, %28
  %44 = load ptr, ptr %2, align 8
  %45 = getelementptr inbounds nuw %struct.uv_loop_s, ptr %44, i32 0, i32 29
  %46 = getelementptr inbounds [2 x i32], ptr %45, i64 0, i64 1
  %47 = load i32, ptr %46, align 4
  %48 = icmp ne i32 %47, -1
  br i1 %48, label %49, label %58

49:                                               ; preds = %43
  %50 = load ptr, ptr %2, align 8
  %51 = getelementptr inbounds nuw %struct.uv_loop_s, ptr %50, i32 0, i32 29
  %52 = getelementptr inbounds [2 x i32], ptr %51, i64 0, i64 1
  %53 = load i32, ptr %52, align 4
  %54 = call i32 @uv__close(i32 noundef %53)
  %55 = load ptr, ptr %2, align 8
  %56 = getelementptr inbounds nuw %struct.uv_loop_s, ptr %55, i32 0, i32 29
  %57 = getelementptr inbounds [2 x i32], ptr %56, i64 0, i64 1
  store i32 -1, ptr %57, align 4
  br label %58

58:                                               ; preds = %49, %43
  call void @llvm.lifetime.end.p0(i64 8, ptr %3) #9
  ret void
}