; Function Attrs: nounwind uwtable
define hidden void @uv__signal_loop_cleanup(ptr noundef captures(address) %0) local_unnamed_addr #0 {
  %2 = getelementptr inbounds nuw i8, ptr %0, i64 16
  %.017 = load ptr, ptr %2, align 8
  %.not18 = icmp eq ptr %.017, %2
  br i1 %.not18, label %._crit_edge, label %.lr.ph

.lr.ph:                                           ; preds = %1, %8
  %.019 = phi ptr [ %.0, %8 ], [ %.017, %1 ]
  %3 = getelementptr inbounds i8, ptr %.019, i64 -16
  %4 = load i32, ptr %3, align 8
  %5 = icmp eq i32 %4, 16
  br i1 %5, label %6, label %8

6:                                                ; preds = %.lr.ph
  %7 = getelementptr inbounds i8, ptr %.019, i64 -32
  tail call fastcc void @uv__signal_stop(ptr noundef nonnull %7)
  br label %8

8:                                                ; preds = %6, %.lr.ph
  %.0 = load ptr, ptr %.019, align 8
  %.not = icmp eq ptr %.0, %2
  br i1 %.not, label %._crit_edge, label %.lr.ph

._crit_edge:                                      ; preds = %8, %1
  %9 = getelementptr inbounds nuw i8, ptr %0, i64 552
  %10 = load i32, ptr %9, align 8
  %.not15 = icmp eq i32 %10, -1
  br i1 %.not15, label %13, label %11

11:                                               ; preds = %._crit_edge
  %12 = tail call i32 @uv__close(i32 noundef %10) #10
  store i32 -1, ptr %9, align 8
  br label %13

13:                                               ; preds = %11, %._crit_edge
  %14 = getelementptr inbounds nuw i8, ptr %0, i64 556
  %15 = load i32, ptr %14, align 4
  %.not16 = icmp eq i32 %15, -1
  br i1 %.not16, label %18, label %16

16:                                               ; preds = %13
  %17 = tail call i32 @uv__close(i32 noundef %15) #10
  store i32 -1, ptr %14, align 4
  br label %18

18:                                               ; preds = %16, %13
  ret void
}